; Function Attrs: null_pointer_is_valid sspstrong uwtable
define hidden ptr @window_splitter_load(ptr noundef %0) local_unnamed_addr #0 {
  %2 = load ptr, ptr @window_splitter_hash, align 8
  %.not = icmp eq ptr %2, null
  br i1 %.not, label %5, label %3

3:                                                ; preds = %1
  %4 = tail call ptr @g_hash_table_lookup(ptr noundef nonnull %2, ptr noundef %0)
  br label %5

5:                                                ; preds = %1, %3
  %.0 = phi ptr [ %4, %3 ], [ null, %1 ]
  ret ptr %.0
}